target datalayout = "e-m:e-p270:32:32-p271:32:32-p272:64:64-i64:64-i128:128-f80:128-n8:16:32:64-S128"
target triple = "x86_64-pc-linux-gnu"

; Function Attrs: nounwind uwtable
define internal void @threshold8(ptr noundef %0, ptr noundef %1, ptr noundef %2, ptr noundef %3, ptr noundef %4, i64 noundef %5, i64 noundef %6, i64 noundef %7, i64 noundef %8, i64 noundef %9, i32 noundef %10, i32 noundef %11) #2 {
  %13 = alloca ptr, align 8
  %14 = alloca ptr, align 8
  %15 = alloca ptr, align 8
  %16 = alloca ptr, align 8
  %17 = alloca ptr, align 8
  %18 = alloca i64, align 8
  %19 = alloca i64, align 8
  %20 = alloca i64, align 8
  %21 = alloca i64, align 8
  %22 = alloca i64, align 8
  %23 = alloca i32, align 4
  %24 = alloca i32, align 4
  %25 = alloca i32, align 4
  %26 = alloca i32, align 4
  %27 = alloca i32, align 4
  store ptr %0, ptr %13, align 8, !tbaa !53
  store ptr %1, ptr %14, align 8, !tbaa !53
  store ptr %2, ptr %15, align 8, !tbaa !53
  store ptr %3, ptr %16, align 8, !tbaa !53
  store ptr %4, ptr %17, align 8, !tbaa !53
  store i64 %5, ptr %18, align 8, !tbaa !54
  store i64 %6, ptr %19, align 8, !tbaa !54
  store i64 %7, ptr %20, align 8, !tbaa !54
  store i64 %8, ptr %21, align 8, !tbaa !54
  store i64 %9, ptr %22, align 8, !tbaa !54
  store i32 %10, ptr %23, align 4, !tbaa !44
  store i32 %11, ptr %24, align 4, !tbaa !44
  call void @llvm.lifetime.start.p0(i64 4, ptr %25) #9
  store i32 0, ptr %25, align 4, !tbaa !44
  br label %28

28:                                               ; preds = %93, %12
  %29 = load i32, ptr %25, align 4, !tbaa !44
  %30 = load i32, ptr %24, align 4, !tbaa !44
  %31 = icmp slt i32 %29, %30
  br i1 %31, label %33, label %32

32:                                               ; preds = %28
  store i32 2, ptr %26, align 4
  call void @llvm.lifetime.end.p0(i64 4, ptr %25) #9
  br label %96

33:                                               ; preds = %28
  call void @llvm.lifetime.start.p0(i64 4, ptr %27) #9
  store i32 0, ptr %27, align 4, !tbaa !44
  br label %34

34:                                               ; preds = %74, %33
  %35 = load i32, ptr %27, align 4, !tbaa !44
  %36 = load i32, ptr %23, align 4, !tbaa !44
  %37 = icmp slt i32 %35, %36
  br i1 %37, label %39, label %38

38:                                               ; preds = %34
  store i32 5, ptr %26, align 4
  call void @llvm.lifetime.end.p0(i64 4, ptr %27) #9
  br label %77

39:                                               ; preds = %34
  %40 = load ptr, ptr %13, align 8, !tbaa !53
  %41 = load i32, ptr %27, align 4, !tbaa !44
  %42 = sext i32 %41 to i64
  %43 = getelementptr inbounds i8, ptr %40, i64 %42
  %44 = load i8, ptr %43, align 1, !tbaa !55
  %45 = zext i8 %44 to i32
  %46 = load ptr, ptr %14, align 8, !tbaa !53
  %47 = load i32, ptr %27, align 4, !tbaa !44
  %48 = sext i32 %47 to i64
  %49 = getelementptr inbounds i8, ptr %46, i64 %48
  %50 = load i8, ptr %49, align 1, !tbaa !55
  %51 = zext i8 %50 to i32
  %52 = icmp sle i32 %45, %51
  br i1 %52, label %53, label %60

53:                                               ; preds = %39
  %54 = load ptr, ptr %15, align 8, !tbaa !53
  %55 = load i32, ptr %27, align 4, !tbaa !44
  %56 = sext i32 %55 to i64
  %57 = getelementptr inbounds i8, ptr %54, i64 %56
  %58 = load i8, ptr %57, align 1, !tbaa !55
  %59 = zext i8 %58 to i32
  br label %67

60:                                               ; preds = %39
  %61 = load ptr, ptr %16, align 8, !tbaa !53
  %62 = load i32, ptr %27, align 4, !tbaa !44
  %63 = sext i32 %62 to i64
  %64 = getelementptr inbounds i8, ptr %61, i64 %63
  %65 = load i8, ptr %64, align 1, !tbaa !55
  %66 = zext i8 %65 to i32
  br label %67

67:                                               ; preds = %60, %53
  %68 = phi i32 [ %59, %53 ], [ %66, %60 ]
  %69 = trunc i32 %68 to i8
  %70 = load ptr, ptr %17, align 8, !tbaa !53
  %71 = load i32, ptr %27, align 4, !tbaa !44
  %72 = sext i32 %71 to i64
  %73 = getelementptr inbounds i8, ptr %70, i64 %72
  store i8 %69, ptr %73, align 1, !tbaa !55
  br label %74

74:                                               ; preds = %67
  %75 = load i32, ptr %27, align 4, !tbaa !44
  %76 = add nsw i32 %75, 1
  store i32 %76, ptr %27, align 4, !tbaa !44
  br label %34, !llvm.loop !56

77:                                               ; preds = %38
  %78 = load i64, ptr %18, align 8, !tbaa !54
  %79 = load ptr, ptr %13, align 8, !tbaa !53
  %80 = getelementptr inbounds i8, ptr %79, i64 %78
  store ptr %80, ptr %13, align 8, !tbaa !53
  %81 = load i64, ptr %19, align 8, !tbaa !54
  %82 = load ptr, ptr %14, align 8, !tbaa !53
  %83 = getelementptr inbounds i8, ptr %82, i64 %81
  store ptr %83, ptr %14, align 8, !tbaa !53
  %84 = load i64, ptr %20, align 8, !tbaa !54
  %85 = load ptr, ptr %15, align 8, !tbaa !53
  %86 = getelementptr inbounds i8, ptr %85, i64 %84
  store ptr %86, ptr %15, align 8, !tbaa !53
  %87 = load i64, ptr %21, align 8, !tbaa !54
  %88 = load ptr, ptr %16, align 8, !tbaa !53
  %89 = getelementptr inbounds i8, ptr %88, i64 %87
  store ptr %89, ptr %16, align 8, !tbaa !53
  %90 = load i64, ptr %22, align 8, !tbaa !54
  %91 = load ptr, ptr %17, align 8, !tbaa !53
  %92 = getelementptr inbounds i8, ptr %91, i64 %90
  store ptr %92, ptr %17, align 8, !tbaa !53
  br label %93

93:                                               ; preds = %77
  %94 = load i32, ptr %25, align 4, !tbaa !44
  %95 = add nsw i32 %94, 1
  store i32 %95, ptr %25, align 4, !tbaa !44
  br label %28, !llvm.loop !58

96:                                               ; preds = %32
  ret void
}