; Function Attrs: nofree norecurse nosync nounwind memory(read, argmem: readwrite, inaccessiblemem: none) uwtable
define internal void @threshold8(ptr noundef readonly captures(none) %0, ptr noundef readonly captures(none) %1, ptr noundef readonly captures(none) %2, ptr noundef readonly captures(none) %3, ptr noundef writeonly captures(none) %4, i64 noundef %5, i64 noundef %6, i64 noundef %7, i64 noundef %8, i64 noundef %9, i32 noundef %10, i32 noundef %11) #4 {
  %13 = icmp sgt i32 %11, 0
  %14 = icmp sgt i32 %10, 0
  %or.cond = and i1 %13, %14
  br i1 %or.cond, label %.preheader.us.preheader, label %._crit_edge39

.preheader.us.preheader:                          ; preds = %12
  %wide.trip.count = zext nneg i32 %10 to i64
  br label %.preheader.us

.preheader.us:                                    ; preds = %.preheader.us.preheader, %._crit_edge.us
  %.02538.us = phi i32 [ %26, %._crit_edge.us ], [ 0, %.preheader.us.preheader ]
  %.02637.us = phi ptr [ %21, %._crit_edge.us ], [ %0, %.preheader.us.preheader ]
  %.02736.us = phi ptr [ %22, %._crit_edge.us ], [ %1, %.preheader.us.preheader ]
  %.02835.us = phi ptr [ %23, %._crit_edge.us ], [ %2, %.preheader.us.preheader ]
  %.02934.us = phi ptr [ %24, %._crit_edge.us ], [ %3, %.preheader.us.preheader ]
  %.03033.us = phi ptr [ %25, %._crit_edge.us ], [ %4, %.preheader.us.preheader ]
  br label %15

15:                                               ; preds = %.preheader.us, %15
  %indvars.iv = phi i64 [ 0, %.preheader.us ], [ %indvars.iv.next, %15 ]
  %16 = getelementptr inbounds nuw i8, ptr %.02637.us, i64 %indvars.iv
  %17 = load i8, ptr %16, align 1, !tbaa !46
  %18 = getelementptr inbounds nuw i8, ptr %.02736.us, i64 %indvars.iv
  %19 = load i8, ptr %18, align 1, !tbaa !46
  %.not.us = icmp ugt i8 %17, %19
  %.029..028.us = select i1 %.not.us, ptr %.02934.us, ptr %.02835.us
  %.in.in.us = getelementptr inbounds nuw i8, ptr %.029..028.us, i64 %indvars.iv
  %.in31.us = load i8, ptr %.in.in.us, align 1, !tbaa !46
  %20 = getelementptr inbounds nuw i8, ptr %.03033.us, i64 %indvars.iv
  store i8 %.in31.us, ptr %20, align 1, !tbaa !46
  %indvars.iv.next = add nuw nsw i64 %indvars.iv, 1
  %exitcond.not = icmp eq i64 %indvars.iv.next, %wide.trip.count
  br i1 %exitcond.not, label %._crit_edge.us, label %15, !llvm.loop !47

._crit_edge.us:                                   ; preds = %15
  %21 = getelementptr inbounds i8, ptr %.02637.us, i64 %5
  %22 = getelementptr inbounds i8, ptr %.02736.us, i64 %6
  %23 = getelementptr inbounds i8, ptr %.02835.us, i64 %7
  %24 = getelementptr inbounds i8, ptr %.02934.us, i64 %8
  %25 = getelementptr inbounds i8, ptr %.03033.us, i64 %9
  %26 = add nuw nsw i32 %.02538.us, 1
  %exitcond42.not = icmp eq i32 %26, %11
  br i1 %exitcond42.not, label %._crit_edge39, label %.preheader.us, !llvm.loop !49

._crit_edge39:                                    ; preds = %._crit_edge.us, %12
  ret void
}